; Function Attrs: mustprogress nounwind uwtable
define dso_local noundef nonnull align 8 dereferenceable(149) ptr @_ZN4llvm12DWARFContext18getAppleNamespacesEv(ptr nocapture noundef nonnull readonly align 8 dereferenceable(105) %0) local_unnamed_addr #0 align 2 {
  %2 = getelementptr inbounds nuw i8, ptr %0, i64 16
  %3 = load ptr, ptr %2, align 8
  %4 = load ptr, ptr %3, align 8
  %5 = getelementptr inbounds i8, ptr %4, i64 176
  %6 = load ptr, ptr %5, align 8
  %7 = tail call noundef nonnull align 8 dereferenceable(149) ptr %6(ptr noundef nonnull align 8 dereferenceable(16) %3) #24
  ret ptr %7
}